; ModuleID = '31/1832.c'
source_filename = "31/1832.c"
target datalayout = "e-m:e-p270:32:32-p271:32:32-p272:64:64-i64:64-f80:128-n8:16:32:64-S128"
target triple = "x86_64-pc-linux-gnu"

@.str = private unnamed_addr constant [4 x i8] c"end\00", align 1

; Function Attrs: noinline nounwind uwtable
define dso_local void @main() #0 {
  %1 = alloca [1024 x [128 x i8]], align 16
  %2 = alloca i32, align 4
  store i32 0, i32* %2, align 4
  br label %3

3:                                                ; preds = %18, %0
  %4 = load i32, i32* %2, align 4
  %5 = sext i32 %4 to i64
  %6 = getelementptr inbounds [1024 x [128 x i8]], [1024 x [128 x i8]]* %1, i64 0, i64 %5
  %7 = getelementptr inbounds [128 x i8], [128 x i8]* %6, i64 0, i64 0
  %8 = call i32 (i8*, ...) bitcast (i32 (...)* @gets to i32 (i8*, ...)*)(i8* %7)
  %9 = icmp ne i32 %8, 0
  br i1 %9, label %10, label %21

10:                                               ; preds = %3
  %11 = load i32, i32* %2, align 4
  %12 = sext i32 %11 to i64
  %13 = getelementptr inbounds [1024 x [128 x i8]], [1024 x [128 x i8]]* %1, i64 0, i64 %12
  %14 = getelementptr inbounds [128 x i8], [128 x i8]* %13, i64 0, i64 0
  %15 = call i32 @strcmp(i8* %14, i8* getelementptr inbounds ([4 x i8], [4 x i8]* @.str, i64 0, i64 0)) #3
  %16 = icmp eq i32 %15, 0
  br i1 %16, label %17, label %18

17:                                               ; preds = %10
  br label %21

18:                                               ; preds = %10
  %19 = load i32, i32* %2, align 4
  %20 = add nsw i32 %19, 1
  store i32 %20, i32* %2, align 4
  br label %3

21:                                               ; preds = %17, %3
  br label %22

22:                                               ; preds = %25, %21
  %23 = load i32, i32* %2, align 4
  %24 = icmp ne i32 %23, 0
  br i1 %24, label %25, label %33

25:                                               ; preds = %22
  %26 = load i32, i32* %2, align 4
  %27 = add nsw i32 %26, -1
  store i32 %27, i32* %2, align 4
  %28 = load i32, i32* %2, align 4
  %29 = sext i32 %28 to i64
  %30 = getelementptr inbounds [1024 x [128 x i8]], [1024 x [128 x i8]]* %1, i64 0, i64 %29
  %31 = getelementptr inbounds [128 x i8], [128 x i8]* %30, i64 0, i64 0
  %32 = call i32 @puts(i8* %31)
  br label %22

33:                                               ; preds = %22
  ret void
}

declare dso_local i32 @gets(...) #1

; Function Attrs: nounwind readonly
declare dso_local i32 @strcmp(i8*, i8*) #2

declare dso_local i32 @puts(i8*) #1


!llvm.module.flags = !{!0}
!llvm.ident = !{!1}

!0 = !{i32 1, !"wchar_size", i32 4}
!1 = !{!"clang version 10.0.0-4ubuntu1 "}
