; ModuleID = 'source-C-CXX/30/1832.c'
source_filename = "source-C-CXX/30/1832.c"
target datalayout = "e-m:e-p270:32:32-p271:32:32-p272:64:64-i64:64-f80:128-n8:16:32:64-S128"
target triple = "x86_64-pc-linux-gnu"

@.str = private unnamed_addr constant [4 x i8] c"end\00", align 1

; Function Attrs: nounwind sspstrong uwtable
define dso_local void @main() local_unnamed_addr #0 {
  %1 = alloca [1024 x [128 x i8]], align 16
  %2 = getelementptr inbounds [1024 x [128 x i8]], [1024 x [128 x i8]]* %1, i64 0, i64 0, i64 0
  call void @llvm.lifetime.start.p0i8(i64 131072, i8* nonnull %2) #5
  %3 = call i32 (i8*, ...) bitcast (i32 (...)* @gets to i32 (i8*, ...)*)(i8* nonnull %2) #5
  %4 = icmp eq i32 %3, 0
  br i1 %4, label %29, label %5

5:                                                ; preds = %0, %11
  %6 = phi i64 [ %12, %11 ], [ 0, %0 ]
  %7 = phi i8* [ %14, %11 ], [ %2, %0 ]
  %8 = phi i32 [ %13, %11 ], [ 0, %0 ]
  %9 = call i32 @strcmp(i8* noundef nonnull %7, i8* noundef nonnull dereferenceable(4) getelementptr inbounds ([4 x i8], [4 x i8]* @.str, i64 0, i64 0)) #6
  %10 = icmp eq i32 %9, 0
  br i1 %10, label %17, label %11

11:                                               ; preds = %5
  %12 = add nuw i64 %6, 1
  %13 = add nuw nsw i32 %8, 1
  %14 = getelementptr inbounds [1024 x [128 x i8]], [1024 x [128 x i8]]* %1, i64 0, i64 %12, i64 0
  %15 = call i32 (i8*, ...) bitcast (i32 (...)* @gets to i32 (i8*, ...)*)(i8* nonnull %14) #5
  %16 = icmp eq i32 %15, 0
  br i1 %16, label %20, label %5, !llvm.loop !5

17:                                               ; preds = %5
  %18 = trunc i64 %6 to i32
  %19 = icmp eq i32 %18, 0
  br i1 %19, label %29, label %20

20:                                               ; preds = %11, %17
  %21 = phi i32 [ %18, %17 ], [ %13, %11 ]
  %22 = sext i32 %21 to i64
  br label %23

23:                                               ; preds = %20, %23
  %24 = phi i64 [ %22, %20 ], [ %25, %23 ]
  %25 = add nsw i64 %24, -1
  %26 = getelementptr inbounds [1024 x [128 x i8]], [1024 x [128 x i8]]* %1, i64 0, i64 %25, i64 0
  %27 = call i32 @puts(i8* nonnull %26)
  %28 = icmp eq i64 %25, 0
  br i1 %28, label %29, label %23, !llvm.loop !7

29:                                               ; preds = %23, %0, %17
  call void @llvm.lifetime.end.p0i8(i64 131072, i8* nonnull %2) #5
  ret void
}

; Function Attrs: argmemonly mustprogress nofree nosync nounwind willreturn
declare void @llvm.lifetime.start.p0i8(i64 immarg, i8* nocapture) #1

declare i32 @gets(...) local_unnamed_addr #2

; Function Attrs: argmemonly mustprogress nofree nounwind readonly willreturn
declare i32 @strcmp(i8* nocapture, i8* nocapture) local_unnamed_addr #3

; Function Attrs: nofree nounwind
declare noundef i32 @puts(i8* nocapture noundef readonly) local_unnamed_addr #4

; Function Attrs: argmemonly mustprogress nofree nosync nounwind willreturn
declare void @llvm.lifetime.end.p0i8(i64 immarg, i8* nocapture) #1


!llvm.module.flags = !{!0, !1, !2, !3}
!llvm.ident = !{!4}

!0 = !{i32 1, !"wchar_size", i32 4}
!1 = !{i32 7, !"PIC Level", i32 2}
!2 = !{i32 7, !"PIE Level", i32 2}
!3 = !{i32 7, !"uwtable", i32 1}
!4 = !{!"clang version 13.0.0"}
!5 = distinct !{!5, !6}
!6 = !{!"llvm.loop.mustprogress"}
!7 = distinct !{!7, !6}
